target datalayout = "e-m:e-p270:32:32-p271:32:32-p272:64:64-i64:64-i128:128-f80:128-n8:16:32:64-S128"
target triple = "x86_64-pc-linux-gnu"

%struct.NUTContext = type { ptr, ptr, [256 x %struct.FrameCode], [128 x i8], [128 x ptr], i64, ptr, ptr, i32, i32, i64, i64, i32, ptr, ptr, i32, i32, i64, ptr, i32, i32, i32 }
%struct.FrameCode = type { i16, i8, i16, i16, i16, i8, i8 }

; Function Attrs: nounwind uwtable
define void @ff_nut_free_sp(ptr noundef %0) #0 {
  %2 = alloca ptr, align 8
  store ptr %0, ptr %2, align 8, !tbaa !4
  %3 = load ptr, ptr %2, align 8, !tbaa !4
  %4 = getelementptr inbounds nuw %struct.NUTContext, ptr %3, i32 0, i32 14
  %5 = load ptr, ptr %4, align 8, !tbaa !56
  %6 = icmp ne ptr %5, null
  br i1 %6, label %7, label %14

7:                                                ; preds = %1
  %8 = load ptr, ptr %2, align 8, !tbaa !4
  %9 = getelementptr inbounds nuw %struct.NUTContext, ptr %8, i32 0, i32 14
  %10 = load ptr, ptr %9, align 8, !tbaa !56
  call void @av_tree_enumerate(ptr noundef %10, ptr noundef null, ptr noundef null, ptr noundef @enu_free)
  %11 = load ptr, ptr %2, align 8, !tbaa !4
  %12 = getelementptr inbounds nuw %struct.NUTContext, ptr %11, i32 0, i32 14
  %13 = load ptr, ptr %12, align 8, !tbaa !56
  call void @av_tree_destroy(ptr noundef %13)
  br label %14

14:                                               ; preds = %7, %1
  ret void
}