; Function Attrs: nounwind uwtable
define void @ff_nut_free_sp(ptr noundef readonly captures(none) %0) local_unnamed_addr #4 {
  %2 = getelementptr inbounds nuw i8, ptr %0, i64 4304
  %3 = load ptr, ptr %2, align 8, !tbaa !50
  %.not = icmp eq ptr %3, null
  br i1 %.not, label %6, label %4

4:                                                ; preds = %1
  tail call void @av_tree_enumerate(ptr noundef nonnull %3, ptr noundef null, ptr noundef null, ptr noundef nonnull @enu_free) #7
  %5 = load ptr, ptr %2, align 8, !tbaa !50
  tail call void @av_tree_destroy(ptr noundef %5) #7
  br label %6

6:                                                ; preds = %4, %1
  ret void
}